target datalayout = "e-m:e-p270:32:32-p271:32:32-p272:64:64-i64:64-i128:128-f80:128-n8:16:32:64-S128"
target triple = "x86_64-pc-linux-gnu"

%struct.ZSTD_customMem = type { ptr, ptr, ptr }
%struct.ZSTD_frameParameters = type { i32, i32, i32 }
%struct.ZSTD_compressionParameters = type { i32, i32, i32, i32, i32, i32, i32 }
%struct.ZSTD_CCtx_s = type { i32, i32, i32, %struct.ZSTD_CCtx_params_s, %struct.ZSTD_CCtx_params_s, %struct.ZSTD_CCtx_params_s, i32, i64, %struct.ZSTD_cwksp, i64, i64, i64, i64, %struct.XXH64_state_s, %struct.ZSTD_customMem, ptr, i64, %struct.SeqCollector, i32, i32, %struct.SeqStore_t, %struct.ldmState_t, ptr, i64, %struct.RawSeqStore_t, %struct.ZSTD_blockState_t, ptr, i64, i32, ptr, i64, i64, i64, i64, ptr, i64, i64, i64, i32, i32, %struct.ZSTD_inBuffer_s, i64, i64, %struct.ZSTD_localDict, ptr, %struct.ZSTD_prefixDict_s, ptr, i64, %struct.ZSTD_blockSplitCtx, ptr, i64 }
%struct.ZSTD_CCtx_params_s = type { i32, %struct.ZSTD_compressionParameters, %struct.ZSTD_frameParameters, i32, i32, i64, i32, i32, i32, i32, i64, i32, i32, %struct.ldmParams_t, i32, i32, i32, i32, i32, i32, i32, i64, i32, i32, %struct.ZSTD_customMem, i32, i32, ptr, ptr, i32 }
%struct.ldmParams_t = type { i32, i32, i32, i32, i32, i32 }
%struct.ZSTD_cwksp = type { ptr, ptr, ptr, ptr, ptr, ptr, ptr, i8, i32, i32, i32 }
%struct.XXH64_state_s = type { i64, [4 x i64], [4 x i64], i32, i32, i64 }
%struct.SeqCollector = type { i32, ptr, i64, i64 }
%struct.SeqStore_t = type { ptr, ptr, ptr, ptr, ptr, ptr, ptr, i64, i64, i32, i32 }
%struct.ldmState_t = type { %struct.ZSTD_window_t, ptr, i32, ptr, [64 x i64], [64 x %struct.ldmMatchCandidate_t] }
%struct.ZSTD_window_t = type { ptr, ptr, ptr, i32, i32, i32 }
%struct.ldmMatchCandidate_t = type { ptr, i32, i32, ptr }
%struct.RawSeqStore_t = type { ptr, i64, i64, i64, i64 }
%struct.ZSTD_blockState_t = type { ptr, ptr, %struct.ZSTD_MatchState_t }
%struct.ZSTD_MatchState_t = type { %struct.ZSTD_window_t, i32, i32, i32, i32, ptr, [8 x i32], i64, i32, ptr, ptr, ptr, i32, i32, %struct.optState_t, ptr, %struct.ZSTD_compressionParameters, ptr, i32, i32 }
%struct.optState_t = type { ptr, ptr, ptr, ptr, ptr, ptr, i32, i32, i32, i32, i32, i32, i32, i32, i32, ptr, i32 }
%struct.ZSTD_inBuffer_s = type { ptr, i64, i64 }
%struct.ZSTD_localDict = type { ptr, ptr, i64, i32, ptr }
%struct.ZSTD_prefixDict_s = type { ptr, i64, i32 }
%struct.ZSTD_blockSplitCtx = type { %struct.SeqStore_t, %struct.SeqStore_t, %struct.SeqStore_t, %struct.SeqStore_t, %struct.SeqStore_t, [196 x i32], %struct.ZSTD_entropyCTablesMetadata_t }
%struct.ZSTD_entropyCTablesMetadata_t = type { %struct.ZSTD_hufCTablesMetadata_t, %struct.ZSTD_fseCTablesMetadata_t }
%struct.ZSTD_hufCTablesMetadata_t = type { i32, [128 x i8], i64 }
%struct.ZSTD_fseCTablesMetadata_t = type { i32, i32, i32, [133 x i8], i64, i64 }
%struct.ZSTD_compressedBlockState_t = type { %struct.ZSTD_entropyCTables_t, [3 x i32] }
%struct.ZSTD_entropyCTables_t = type { %struct.ZSTD_hufCTables_t, %struct.ZSTD_fseCTables_t }
%struct.ZSTD_hufCTables_t = type { [257 x i64], i32 }
%struct.ZSTD_fseCTables_t = type { [193 x i32], [363 x i32], [329 x i32], i32, i32, i32 }
%struct.ZSTD_CDict_s = type { ptr, i64, i32, ptr, %struct.ZSTD_cwksp, %struct.ZSTD_MatchState_t, %struct.ZSTD_compressedBlockState_t, %struct.ZSTD_customMem, i32, i32, i32 }

; Function Attrs: inlinehint nounwind uwtable
define internal void @ZSTD_cwksp_free(ptr noundef %0, ptr noundef byval(%struct.ZSTD_customMem) align 8 %1) #2 {
  %3 = alloca ptr, align 8
  %4 = alloca ptr, align 8
  store ptr %0, ptr %3, align 8, !tbaa !15
  call void @llvm.lifetime.start.p0(i64 8, ptr %4) #15
  %5 = load ptr, ptr %3, align 8, !tbaa !15
  %6 = getelementptr inbounds nuw %struct.ZSTD_cwksp, ptr %5, i32 0, i32 0
  %7 = load ptr, ptr %6, align 8, !tbaa !54
  store ptr %7, ptr %4, align 8, !tbaa !15
  br label %8

8:                                                ; preds = %2
  br label %9

9:                                                ; preds = %8
  br label %10

10:                                               ; preds = %9
  %11 = load ptr, ptr %3, align 8, !tbaa !15
  call void @llvm.memset.p0.i64(ptr align 8 %11, i8 0, i64 72, i1 false)
  %12 = load ptr, ptr %4, align 8, !tbaa !15
  call void @ZSTD_customFree(ptr noundef %12, ptr noundef byval(%struct.ZSTD_customMem) align 8 %1)
  call void @llvm.lifetime.end.p0(i64 8, ptr %4) #15
  ret void
}

; Function Attrs: inlinehint nounwind uwtable
define internal i32 @ZSTD_cwksp_owns_buffer(ptr noundef %0, ptr noundef %1) #2 {
  %3 = alloca ptr, align 8
  %4 = alloca ptr, align 8
  store ptr %0, ptr %3, align 8, !tbaa !15
  store ptr %1, ptr %4, align 8, !tbaa !15
  %5 = load ptr, ptr %4, align 8, !tbaa !15
  %6 = icmp ne ptr %5, null
  br i1 %6, label %7, label %19

7:                                                ; preds = %2
  %8 = load ptr, ptr %3, align 8, !tbaa !15
  %9 = getelementptr inbounds nuw %struct.ZSTD_cwksp, ptr %8, i32 0, i32 0
  %10 = load ptr, ptr %9, align 8, !tbaa !54
  %11 = load ptr, ptr %4, align 8, !tbaa !15
  %12 = icmp ule ptr %10, %11
  br i1 %12, label %13, label %19

13:                                               ; preds = %7
  %14 = load ptr, ptr %4, align 8, !tbaa !15
  %15 = load ptr, ptr %3, align 8, !tbaa !15
  %16 = getelementptr inbounds nuw %struct.ZSTD_cwksp, ptr %15, i32 0, i32 1
  %17 = load ptr, ptr %16, align 8, !tbaa !55
  %18 = icmp ult ptr %14, %17
  br label %19

19:                                               ; preds = %13, %7, %2
  %20 = phi i1 [ false, %7 ], [ false, %2 ], [ %18, %13 ]
  %21 = zext i1 %20 to i32
  ret i32 %21
}

; Function Attrs: nounwind uwtable
define i64 @ZSTD_CCtxParams_init(ptr noundef %0, i32 noundef %1) #0 {
  %3 = alloca i64, align 8
  %4 = alloca ptr, align 8
  %5 = alloca i32, align 4
  store ptr %0, ptr %4, align 8, !tbaa !79
  store i32 %1, ptr %5, align 4, !tbaa !53
  br label %6

6:                                                ; preds = %2
  %7 = load ptr, ptr %4, align 8, !tbaa !79
  %8 = icmp ne ptr %7, null
  br i1 %8, label %18, label %9

9:                                                ; preds = %6
  br label %10

10:                                               ; preds = %9
  br label %11

11:                                               ; preds = %10
  br label %12

12:                                               ; preds = %11
  br label %13

13:                                               ; preds = %12
  br label %14

14:                                               ; preds = %13
  br label %15

15:                                               ; preds = %14
  br label %16

16:                                               ; preds = %15
  br label %17

17:                                               ; preds = %16
  store i64 -1, ptr %3, align 8
  br label %27

18:                                               ; preds = %6
  br label %19

19:                                               ; preds = %18
  %20 = load ptr, ptr %4, align 8, !tbaa !79
  call void @llvm.memset.p0.i64(ptr align 8 %20, i8 0, i64 224, i1 false)
  %21 = load i32, ptr %5, align 4, !tbaa !53
  %22 = load ptr, ptr %4, align 8, !tbaa !79
  %23 = getelementptr inbounds nuw %struct.ZSTD_CCtx_params_s, ptr %22, i32 0, i32 3
  store i32 %21, ptr %23, align 4, !tbaa !81
  %24 = load ptr, ptr %4, align 8, !tbaa !79
  %25 = getelementptr inbounds nuw %struct.ZSTD_CCtx_params_s, ptr %24, i32 0, i32 2
  %26 = getelementptr inbounds nuw %struct.ZSTD_frameParameters, ptr %25, i32 0, i32 0
  store i32 1, ptr %26, align 8, !tbaa !82
  store i64 0, ptr %3, align 8
  br label %27

27:                                               ; preds = %19, %17
  %28 = load i64, ptr %3, align 8
  ret i64 %28
}

; Function Attrs: nounwind uwtable
define i64 @ZSTD_freeCDict(ptr noundef %0) #0 {
  %2 = alloca i64, align 8
  %3 = alloca ptr, align 8
  %4 = alloca %struct.ZSTD_customMem, align 8
  %5 = alloca i32, align 4
  store ptr %0, ptr %3, align 8, !tbaa !148
  %6 = load ptr, ptr %3, align 8, !tbaa !148
  %7 = icmp eq ptr %6, null
  br i1 %7, label %8, label %9

8:                                                ; preds = %1
  store i64 0, ptr %2, align 8
  br label %23

9:                                                ; preds = %1
  call void @llvm.lifetime.start.p0(i64 24, ptr %4) #15
  %10 = load ptr, ptr %3, align 8, !tbaa !148
  %11 = getelementptr inbounds nuw %struct.ZSTD_CDict_s, ptr %10, i32 0, i32 7
  call void @llvm.memcpy.p0.p0.i64(ptr align 8 %4, ptr align 8 %11, i64 24, i1 false), !tbaa.struct !14
  call void @llvm.lifetime.start.p0(i64 4, ptr %5) #15
  %12 = load ptr, ptr %3, align 8, !tbaa !148
  %13 = getelementptr inbounds nuw %struct.ZSTD_CDict_s, ptr %12, i32 0, i32 4
  %14 = load ptr, ptr %3, align 8, !tbaa !148
  %15 = call i32 @ZSTD_cwksp_owns_buffer(ptr noundef %13, ptr noundef %14)
  store i32 %15, ptr %5, align 4, !tbaa !53
  %16 = load ptr, ptr %3, align 8, !tbaa !148
  %17 = getelementptr inbounds nuw %struct.ZSTD_CDict_s, ptr %16, i32 0, i32 4
  call void @ZSTD_cwksp_free(ptr noundef %17, ptr noundef byval(%struct.ZSTD_customMem) align 8 %4)
  %18 = load i32, ptr %5, align 4, !tbaa !53
  %19 = icmp ne i32 %18, 0
  br i1 %19, label %22, label %20

20:                                               ; preds = %9
  %21 = load ptr, ptr %3, align 8, !tbaa !148
  call void @ZSTD_customFree(ptr noundef %21, ptr noundef byval(%struct.ZSTD_customMem) align 8 %4)
  br label %22

22:                                               ; preds = %20, %9
  store i64 0, ptr %2, align 8
  call void @llvm.lifetime.end.p0(i64 4, ptr %5) #15
  call void @llvm.lifetime.end.p0(i64 24, ptr %4) #15
  br label %23

23:                                               ; preds = %22, %8
  %24 = load i64, ptr %2, align 8
  ret i64 %24
}

; Function Attrs: inlinehint nounwind uwtable
define internal void @ZSTD_customFree(ptr noundef %0, ptr noundef byval(%struct.ZSTD_customMem) align 8 %1) #2 {
  %3 = alloca ptr, align 8
  store ptr %0, ptr %3, align 8, !tbaa !15
  %4 = load ptr, ptr %3, align 8, !tbaa !15
  %5 = icmp ne ptr %4, null
  br i1 %5, label %6, label %19

6:                                                ; preds = %2
  %7 = getelementptr inbounds nuw %struct.ZSTD_customMem, ptr %1, i32 0, i32 1
  %8 = load ptr, ptr %7, align 8, !tbaa !10
  %9 = icmp ne ptr %8, null
  br i1 %9, label %10, label %16

10:                                               ; preds = %6
  %11 = getelementptr inbounds nuw %struct.ZSTD_customMem, ptr %1, i32 0, i32 1
  %12 = load ptr, ptr %11, align 8, !tbaa !10
  %13 = getelementptr inbounds nuw %struct.ZSTD_customMem, ptr %1, i32 0, i32 2
  %14 = load ptr, ptr %13, align 8, !tbaa !13
  %15 = load ptr, ptr %3, align 8, !tbaa !15
  call void %12(ptr noundef %14, ptr noundef %15)
  br label %18

16:                                               ; preds = %6
  %17 = load ptr, ptr %3, align 8, !tbaa !15
  call void @free(ptr noundef %17) #15
  br label %18

18:                                               ; preds = %16, %10
  br label %19

19:                                               ; preds = %18, %2
  ret void
}

; Function Attrs: nounwind uwtable
define i64 @ZSTD_CCtxParams_reset(ptr noundef %0) #0 {
  %2 = alloca ptr, align 8
  store ptr %0, ptr %2, align 8, !tbaa !79
  %3 = load ptr, ptr %2, align 8, !tbaa !79
  %4 = call i64 @ZSTD_CCtxParams_init(ptr noundef %3, i32 noundef 3)
  ret i64 %4
}

; Function Attrs: nounwind uwtable
define internal void @ZSTD_clearAllDicts(ptr noundef %0) #0 {
  %2 = alloca ptr, align 8
  store ptr %0, ptr %2, align 8, !tbaa !11
  %3 = load ptr, ptr %2, align 8, !tbaa !11
  %4 = getelementptr inbounds nuw %struct.ZSTD_CCtx_s, ptr %3, i32 0, i32 43
  %5 = getelementptr inbounds nuw %struct.ZSTD_localDict, ptr %4, i32 0, i32 0
  %6 = load ptr, ptr %5, align 8, !tbaa !144
  %7 = load ptr, ptr %2, align 8, !tbaa !11
  %8 = getelementptr inbounds nuw %struct.ZSTD_CCtx_s, ptr %7, i32 0, i32 14
  call void @ZSTD_customFree(ptr noundef %6, ptr noundef byval(%struct.ZSTD_customMem) align 8 %8)
  %9 = load ptr, ptr %2, align 8, !tbaa !11
  %10 = getelementptr inbounds nuw %struct.ZSTD_CCtx_s, ptr %9, i32 0, i32 43
  %11 = getelementptr inbounds nuw %struct.ZSTD_localDict, ptr %10, i32 0, i32 4
  %12 = load ptr, ptr %11, align 8, !tbaa !147
  %13 = call i64 @ZSTD_freeCDict(ptr noundef %12)
  %14 = load ptr, ptr %2, align 8, !tbaa !11
  %15 = getelementptr inbounds nuw %struct.ZSTD_CCtx_s, ptr %14, i32 0, i32 43
  call void @llvm.memset.p0.i64(ptr align 8 %15, i8 0, i64 40, i1 false)
  %16 = load ptr, ptr %2, align 8, !tbaa !11
  %17 = getelementptr inbounds nuw %struct.ZSTD_CCtx_s, ptr %16, i32 0, i32 45
  call void @llvm.memset.p0.i64(ptr align 8 %17, i8 0, i64 24, i1 false)
  %18 = load ptr, ptr %2, align 8, !tbaa !11
  %19 = getelementptr inbounds nuw %struct.ZSTD_CCtx_s, ptr %18, i32 0, i32 44
  store ptr null, ptr %19, align 8, !tbaa !136
  ret void
}

; Function Attrs: nounwind uwtable
define i64 @ZSTD_CCtx_setPledgedSrcSize(ptr noundef %0, i64 noundef %1) #0 {
  %3 = alloca i64, align 8
  %4 = alloca ptr, align 8
  %5 = alloca i64, align 8
  store ptr %0, ptr %4, align 8, !tbaa !11
  store i64 %1, ptr %5, align 8, !tbaa !141
  br label %6

6:                                                ; preds = %2
  br label %7

7:                                                ; preds = %6
  br label %8

8:                                                ; preds = %7
  %9 = load ptr, ptr %4, align 8, !tbaa !11
  %10 = getelementptr inbounds nuw %struct.ZSTD_CCtx_s, ptr %9, i32 0, i32 38
  %11 = load i32, ptr %10, align 8, !tbaa !102
  %12 = icmp ne i32 %11, 0
  br i1 %12, label %13, label %22

13:                                               ; preds = %8
  br label %14

14:                                               ; preds = %13
  br label %15

15:                                               ; preds = %14
  br label %16

16:                                               ; preds = %15
  br label %17

17:                                               ; preds = %16
  br label %18

18:                                               ; preds = %17
  br label %19

19:                                               ; preds = %18
  br label %20

20:                                               ; preds = %19
  br label %21

21:                                               ; preds = %20
  store i64 -60, ptr %3, align 8
  br label %28

22:                                               ; preds = %8
  br label %23

23:                                               ; preds = %22
  %24 = load i64, ptr %5, align 8, !tbaa !141
  %25 = add i64 %24, 1
  %26 = load ptr, ptr %4, align 8, !tbaa !11
  %27 = getelementptr inbounds nuw %struct.ZSTD_CCtx_s, ptr %26, i32 0, i32 10
  store i64 %25, ptr %27, align 8, !tbaa !142
  store i64 0, ptr %3, align 8
  br label %28

28:                                               ; preds = %23, %21
  %29 = load i64, ptr %3, align 8
  ret i64 %29
}

; Function Attrs: nounwind uwtable
define internal i32 @ERR_isError(i64 noundef %0) #0 {
  %2 = alloca i64, align 8
  store i64 %0, ptr %2, align 8, !tbaa !3
  %3 = load i64, ptr %2, align 8, !tbaa !3
  %4 = icmp ugt i64 %3, -120
  %5 = zext i1 %4 to i32
  ret i32 %5
}

; Function Attrs: nounwind uwtable
define i64 @ZSTD_CCtx_reset(ptr noundef %0, i32 noundef %1) #0 {
  %3 = alloca i64, align 8
  %4 = alloca ptr, align 8
  %5 = alloca i32, align 4
  store ptr %0, ptr %4, align 8, !tbaa !11
  store i32 %1, ptr %5, align 4, !tbaa !53
  %6 = load i32, ptr %5, align 4, !tbaa !53
  %7 = icmp eq i32 %6, 1
  br i1 %7, label %11, label %8

8:                                                ; preds = %2
  %9 = load i32, ptr %5, align 4, !tbaa !53
  %10 = icmp eq i32 %9, 3
  br i1 %10, label %11, label %16

11:                                               ; preds = %8, %2
  %12 = load ptr, ptr %4, align 8, !tbaa !11
  %13 = getelementptr inbounds nuw %struct.ZSTD_CCtx_s, ptr %12, i32 0, i32 38
  store i32 0, ptr %13, align 8, !tbaa !102
  %14 = load ptr, ptr %4, align 8, !tbaa !11
  %15 = getelementptr inbounds nuw %struct.ZSTD_CCtx_s, ptr %14, i32 0, i32 10
  store i64 0, ptr %15, align 8, !tbaa !142
  br label %16

16:                                               ; preds = %11, %8
  %17 = load i32, ptr %5, align 4, !tbaa !53
  %18 = icmp eq i32 %17, 2
  br i1 %18, label %22, label %19

19:                                               ; preds = %16
  %20 = load i32, ptr %5, align 4, !tbaa !53
  %21 = icmp eq i32 %20, 3
  br i1 %21, label %22, label %43

22:                                               ; preds = %19, %16
  br label %23

23:                                               ; preds = %22
  %24 = load ptr, ptr %4, align 8, !tbaa !11
  %25 = getelementptr inbounds nuw %struct.ZSTD_CCtx_s, ptr %24, i32 0, i32 38
  %26 = load i32, ptr %25, align 8, !tbaa !102
  %27 = icmp ne i32 %26, 0
  br i1 %27, label %28, label %37

28:                                               ; preds = %23
  br label %29

29:                                               ; preds = %28
  br label %30

30:                                               ; preds = %29
  br label %31

31:                                               ; preds = %30
  br label %32

32:                                               ; preds = %31
  br label %33

33:                                               ; preds = %32
  br label %34

34:                                               ; preds = %33
  br label %35

35:                                               ; preds = %34
  br label %36

36:                                               ; preds = %35
  store i64 -60, ptr %3, align 8
  br label %44

37:                                               ; preds = %23
  br label %38

38:                                               ; preds = %37
  %39 = load ptr, ptr %4, align 8, !tbaa !11
  call void @ZSTD_clearAllDicts(ptr noundef %39)
  %40 = load ptr, ptr %4, align 8, !tbaa !11
  %41 = getelementptr inbounds nuw %struct.ZSTD_CCtx_s, ptr %40, i32 0, i32 3
  %42 = call i64 @ZSTD_CCtxParams_reset(ptr noundef %41)
  store i64 %42, ptr %3, align 8
  br label %44

43:                                               ; preds = %19
  store i64 0, ptr %3, align 8
  br label %44

44:                                               ; preds = %43, %38, %36
  %45 = load i64, ptr %3, align 8
  ret i64 %45
}

; Function Attrs: nounwind uwtable
define i64 @ZSTD_resetCStream(ptr noundef %0, i64 noundef %1) #0 {
  %3 = alloca i64, align 8
  %4 = alloca ptr, align 8
  %5 = alloca i64, align 8
  %6 = alloca i64, align 8
  %7 = alloca i64, align 8
  %8 = alloca i32, align 4
  %9 = alloca i64, align 8
  store ptr %0, ptr %4, align 8, !tbaa !11
  store i64 %1, ptr %5, align 8, !tbaa !141
  call void @llvm.lifetime.start.p0(i64 8, ptr %6) #15
  %10 = load i64, ptr %5, align 8, !tbaa !141
  %11 = icmp eq i64 %10, 0
  br i1 %11, label %12, label %13

12:                                               ; preds = %2
  br label %15

13:                                               ; preds = %2
  %14 = load i64, ptr %5, align 8, !tbaa !141
  br label %15

15:                                               ; preds = %13, %12
  %16 = phi i64 [ -1, %12 ], [ %14, %13 ]
  store i64 %16, ptr %6, align 8, !tbaa !3
  br label %17

17:                                               ; preds = %15
  br label %18

18:                                               ; preds = %17
  br label %19

19:                                               ; preds = %18
  br label %20

20:                                               ; preds = %19
  call void @llvm.lifetime.start.p0(i64 8, ptr %7) #15
  %21 = load ptr, ptr %4, align 8, !tbaa !11
  %22 = call i64 @ZSTD_CCtx_reset(ptr noundef %21, i32 noundef 1)
  store i64 %22, ptr %7, align 8, !tbaa !3
  %23 = load i64, ptr %7, align 8, !tbaa !3
  %24 = call i32 @ERR_isError(i64 noundef %23)
  %25 = icmp ne i32 %24, 0
  br i1 %25, label %26, label %40

26:                                               ; preds = %20
  br label %27

27:                                               ; preds = %26
  br label %28

28:                                               ; preds = %27
  br label %29

29:                                               ; preds = %28
  br label %30

30:                                               ; preds = %29
  br label %31

31:                                               ; preds = %30
  br label %32

32:                                               ; preds = %31
  br label %33

33:                                               ; preds = %32
  br label %34

34:                                               ; preds = %33
  br label %35

35:                                               ; preds = %34
  br label %36

36:                                               ; preds = %35
  br label %37

37:                                               ; preds = %36
  br label %38

38:                                               ; preds = %37
  %39 = load i64, ptr %7, align 8, !tbaa !3
  store i64 %39, ptr %3, align 8
  store i32 1, ptr %8, align 4
  br label %41

40:                                               ; preds = %20
  store i32 0, ptr %8, align 4
  br label %41

41:                                               ; preds = %40, %38
  call void @llvm.lifetime.end.p0(i64 8, ptr %7) #15
  %42 = load i32, ptr %8, align 4
  switch i32 %42, label %73 [
    i32 0, label %43
  ]

43:                                               ; preds = %41
  br label %44

44:                                               ; preds = %43
  br label %45

45:                                               ; preds = %44
  br label %46

46:                                               ; preds = %45
  call void @llvm.lifetime.start.p0(i64 8, ptr %9) #15
  %47 = load ptr, ptr %4, align 8, !tbaa !11
  %48 = load i64, ptr %6, align 8, !tbaa !3
  %49 = call i64 @ZSTD_CCtx_setPledgedSrcSize(ptr noundef %47, i64 noundef %48)
  store i64 %49, ptr %9, align 8, !tbaa !3
  %50 = load i64, ptr %9, align 8, !tbaa !3
  %51 = call i32 @ERR_isError(i64 noundef %50)
  %52 = icmp ne i32 %51, 0
  br i1 %52, label %53, label %67

53:                                               ; preds = %46
  br label %54

54:                                               ; preds = %53
  br label %55

55:                                               ; preds = %54
  br label %56

56:                                               ; preds = %55
  br label %57

57:                                               ; preds = %56
  br label %58

58:                                               ; preds = %57
  br label %59

59:                                               ; preds = %58
  br label %60

60:                                               ; preds = %59
  br label %61

61:                                               ; preds = %60
  br label %62

62:                                               ; preds = %61
  br label %63

63:                                               ; preds = %62
  br label %64

64:                                               ; preds = %63
  br label %65

65:                                               ; preds = %64
  %66 = load i64, ptr %9, align 8, !tbaa !3
  store i64 %66, ptr %3, align 8
  store i32 1, ptr %8, align 4
  br label %68

67:                                               ; preds = %46
  store i32 0, ptr %8, align 4
  br label %68

68:                                               ; preds = %67, %65
  call void @llvm.lifetime.end.p0(i64 8, ptr %9) #15
  %69 = load i32, ptr %8, align 4
  switch i32 %69, label %73 [
    i32 0, label %70
  ]

70:                                               ; preds = %68
  br label %71

71:                                               ; preds = %70
  br label %72

72:                                               ; preds = %71
  store i64 0, ptr %3, align 8
  store i32 1, ptr %8, align 4
  br label %73

73:                                               ; preds = %72, %68, %41
  call void @llvm.lifetime.end.p0(i64 8, ptr %6) #15
  %74 = load i64, ptr %3, align 8
  ret i64 %74
}