; Function Attrs: mustprogress nofree norecurse nosync nounwind willreturn memory(argmem: write) uwtable
define noundef range(i64 -60, 1) i64 @ZSTD_resetCStream(ptr noundef writeonly captures(none) initializes((784, 792), (3640, 3644)) %0, i64 noundef %1) local_unnamed_addr #6 {
  %3 = icmp eq i64 %1, 0
  %4 = getelementptr inbounds nuw i8, ptr %0, i64 3640
  store i32 0, ptr %4, align 8, !tbaa !81
  %5 = getelementptr inbounds nuw i8, ptr %0, i64 784
  %6 = add i64 %1, 1
  %7 = select i1 %3, i64 0, i64 %6
  store i64 %7, ptr %5, align 8, !tbaa !118
  ret i64 0
}